Certificate:
    Data:
        Version: 3 (0x2)
        Serial Number: 4096 (0x1000)
        Signature Algorithm: sha256WithRSAEncryption
        Issuer: C=AU, ST=Some-State, O=Park smart
        Validity
            Not Before: Feb  4 16:20:31 2019 GMT
            Not After : Feb  4 16:20:31 2020 GMT
        Subject: C=AU, ST=Some-State, O=Parking garage xy
        Subject Public Key Info:
            Public Key Algorithm: rsaEncryption
                RSA Public-Key: (4096 bit)
                Modulus:
                    00:b4:35:21:3d:2c:cd:5b:9d:06:1f:02:a3:47:8d:
                    06:81:c7:db:12:96:8e:3c:30:84:6e:b8:fa:3b:c7:
                    2b:4e:54:e1:2f:1e:8c:1d:a1:83:a7:e2:90:e0:8f:
                    1b:93:8b:fc:7c:d1:93:8c:02:e8:7a:6d:c4:b6:77:
                    53:8f:e6:2a:86:dd:4d:f6:46:c7:24:94:7d:81:53:
                    e4:7f:77:f7:11:f5:54:13:a1:61:00:38:38:bd:82:
                    2e:f9:63:48:59:03:df:38:08:9f:f5:80:82:64:93:
                    ea:e5:91:18:b4:04:6e:a5:10:f9:a6:be:14:5c:16:
                    df:b1:a4:4f:05:40:d3:33:f2:22:3b:85:40:d1:ef:
                    89:e9:18:6f:c3:c3:d4:e9:5d:cc:64:dc:4c:03:43:
                    d7:50:f1:e9:23:76:3d:60:a0:93:64:81:0b:75:54:
                    f3:7b:3e:b9:97:7d:32:56:42:36:cd:64:bc:34:5c:
                    d4:d0:36:06:ef:55:18:a7:ac:f5:84:97:96:cc:e4:
                    9c:69:dd:14:9a:4e:d1:b6:91:9f:b6:cb:e9:a4:e2:
                    bd:7f:30:50:98:57:00:f3:1b:5b:2f:ac:75:b0:20:
                    fc:32:3c:05:6e:4e:0c:75:fc:85:d1:c5:c6:3e:e6:
                    d7:d0:b1:65:cf:8e:ec:37:a6:ca:f5:d6:ad:ca:9e:
                    1f:ab:9e:53:c5:b6:f3:dd:ec:e0:b3:8f:c2:12:c3:
                    99:f8:53:05:36:4f:93:0a:4b:ce:81:2a:c3:58:28:
                    8e:bf:fb:5e:0f:72:0e:fe:07:aa:d8:d2:fe:e6:b6:
                    74:a2:50:00:13:af:83:42:ef:21:a6:7e:44:3c:49:
                    dc:32:61:77:43:a3:f9:52:5d:29:8a:ab:b1:01:6d:
                    87:32:ef:59:4c:45:69:12:79:a8:2d:86:4a:37:b7:
                    34:39:2c:99:21:bd:0d:1a:f2:06:56:ec:4a:7e:25:
                    e6:0f:5c:c5:0e:cf:f2:28:9f:b8:58:5b:31:ad:f0:
                    d6:18:87:7a:67:7b:53:80:2a:a9:b5:fa:c6:9d:03:
                    8e:df:3b:fd:36:73:14:a8:55:4d:b1:db:67:27:04:
                    80:54:b3:68:95:59:c0:c5:fa:9e:41:5c:0f:28:34:
                    7e:63:c5:db:2c:6c:a8:7b:ee:c5:b1:02:b2:62:63:
                    09:ce:41:57:70:df:91:c1:d3:48:3f:d4:41:bb:56:
                    94:49:50:99:5a:05:1f:12:96:b1:19:b3:94:87:9e:
                    41:f4:c1:cd:7b:ba:9f:33:44:ef:7f:92:88:56:e1:
                    65:94:2c:d8:b8:61:79:d9:85:6d:8f:9d:d5:4e:dd:
                    95:6e:54:ab:67:b4:39:aa:00:71:85:e2:1a:f6:f5:
                    7f:d2:b3
                Exponent: 65537 (0x10001)
        X509v3 extensions:
            X509v3 Basic Constraints: 
                CA:FALSE
            Netscape Comment: 
                OpenSSL Generated Certificate
            X509v3 Subject Key Identifier: 
                3A:3A:3B:C7:E6:14:F9:9D:EE:55:D2:14:8A:03:AC:A5:2E:87:1A:36
            X509v3 Authority Key Identifier: 
                keyid:CE:2C:CD:F0:19:0C:17:96:4A:FC:43:5B:D5:F1:94:5A:26:DB:47:30

    Signature Algorithm: sha256WithRSAEncryption
         2b:17:20:e8:ee:77:b1:59:64:f2:71:1e:b4:51:8c:bb:2b:d1:
         6b:54:4a:3a:be:c2:b6:77:91:33:53:cc:1f:d3:be:f5:40:65:
         7f:98:6c:34:91:d6:ad:05:55:88:9d:6d:8a:b1:0a:a1:b1:54:
         02:25:06:bb:1d:ef:a0:3f:6e:76:76:02:31:67:65:5d:57:54:
         6d:27:9f:d9:b3:e7:17:38:48:86:63:6c:9e:bb:db:46:9c:07:
         40:83:dd:4d:e0:cf:55:f5:2d:83:0a:4a:ea:cf:80:fc:52:f4:
         e9:08:fb:4f:33:56:91:a3:37:bc:3c:8f:8f:c6:c5:98:cc:ef:
         9d:05:d3:72:01:71:cf:37:e7:22:1d:c0:ac:23:9d:ec:97:80:
         4a:0b:42:76:bc:bd:75:21:ec:4c:1c:b3:75:db:7a:cb:3b:58:
         fb:ef:5b:7a:31:1d:2f:ca:91:6f:2e:bc:e3:3d:4c:d2:2c:52:
         56:b4:ee:98:72:b2:78:da:b8:af:65:07:ba:bd:71:eb:0b:b1:
         1e:61:cf:b7:a6:21:f4:ac:08:33:81:41:2b:0c:57:a4:30:9c:
         f7:e5:fb:43:21:43:13:0f:8f:23:c6:5e:fe:2b:90:41:69:75:
         2b:0a:ef:0a:23:23:40:ab:8e:e1:5f:7e:02:db:63:24:ca:ad:
         f1:f6:3a:96:09:c3:57:36:d7:5a:43:b9:a5:8b:d7:0f:fe:2f:
         04:da:3b:3d:16:c6:a0:6c:90:6a:9e:6d:0c:b5:17:e3:36:d6:
         b5:d9:8f:61:80:1d:7f:88:8d:7e:45:34:06:dc:67:28:ac:bf:
         3e:84:97:b1:07:d8:e3:56:01:a1:f1:04:15:07:95:84:8b:2a:
         47:09:04:45:1b:b3:0b:73:44:56:7e:d2:3c:bd:fe:7a:32:16:
         bb:97:5e:bc:d9:5c:a3:8e:65:cd:0e:fd:7d:c1:24:60:c6:1c:
         28:b1:79:b1:ec:67:c0:ef:df:49:f3:2a:46:32:e5:01:4f:06:
         0b:4f:94:34:d4:76:77:b4:5e:ab:0d:44:1b:b0:81:3c:db:19:
         7c:fe:6d:06:e1:b5:ad:e1:0b:25:09:df:f1:4a:0c:5c:e2:15:
         55:2f:90:a0:05:1f:17:cf:a4:fd:86:70:f5:67:d3:02:28:c6:
         32:50:ca:e8:ff:81:04:1f:e2:90:d8:0c:ae:8f:bf:86:15:78:
         22:37:de:ab:f1:ee:6a:ad:3d:09:4f:3a:4a:31:9f:dd:95:57:
         ad:05:3e:7a:91:b1:76:84:81:43:5f:41:d4:ad:5e:f7:41:94:
         5f:24:78:b0:6e:cc:4c:10:03:75:80:2a:f2:82:25:a1:78:85:
         ed:99:70:dc:27:bf:a3:3f
-----BEGIN CERTIFICATE-----
MIIFbDCCA1SgAwIBAgICEAAwDQYJKoZIhvcNAQELBQAwNzELMAkGA1UEBhMCQVUx
EzARBgNVBAgMClNvbWUtU3RhdGUxEzARBgNVBAoMClBhcmsgc21hcnQwHhcNMTkw
MjA0MTYyMDMxWhcNMjAwMjA0MTYyMDMxWjA+MQswCQYDVQQGEwJBVTETMBEGA1UE
CAwKU29tZS1TdGF0ZTEaMBgGA1UECgwRUGFya2luZyBnYXJhZ2UgeHkwggIiMA0G
CSqGSIb3DQEBAQUAA4ICDwAwggIKAoICAQC0NSE9LM1bnQYfAqNHjQaBx9sSlo48
MIRuuPo7xytOVOEvHowdoYOn4pDgjxuTi/x80ZOMAuh6bcS2d1OP5iqG3U32Rsck
lH2BU+R/d/cR9VQToWEAODi9gi75Y0hZA984CJ/1gIJkk+rlkRi0BG6lEPmmvhRc
Ft+xpE8FQNMz8iI7hUDR74npGG/Dw9TpXcxk3EwDQ9dQ8ekjdj1goJNkgQt1VPN7
PrmXfTJWQjbNZLw0XNTQNgbvVRinrPWEl5bM5Jxp3RSaTtG2kZ+2y+mk4r1/MFCY
VwDzG1svrHWwIPwyPAVuTgx1/IXRxcY+5tfQsWXPjuw3psr11q3Knh+rnlPFtvPd
7OCzj8ISw5n4UwU2T5MKS86BKsNYKI6/+14Pcg7+B6rY0v7mtnSiUAATr4NC7yGm
fkQ8SdwyYXdDo/lSXSmKq7EBbYcy71lMRWkSeagthko3tzQ5LJkhvQ0a8gZW7Ep+
JeYPXMUOz/Ion7hYWzGt8NYYh3pne1OAKqm1+sadA47fO/02cxSoVU2x22cnBIBU
s2iVWcDF+p5BXA8oNH5jxdssbKh77sWxArJiYwnOQVdw35HB00g/1EG7VpRJUJla
BR8SlrEZs5SHnkH0wc17up8zRO9/kohW4WWULNi4YXnZhW2PndVO3ZVuVKtntDmq
AHGF4hr29X/SswIDAQABo3sweTAJBgNVHRMEAjAAMCwGCWCGSAGG+EIBDQQfFh1P
cGVuU1NMIEdlbmVyYXRlZCBDZXJ0aWZpY2F0ZTAdBgNVHQ4EFgQUOjo7x+YU+Z3u
VdIUigOspS6HGjYwHwYDVR0jBBgwFoAUzizN8BkMF5ZK/ENb1fGUWibbRzAwDQYJ
KoZIhvcNAQELBQADggIBACsXIOjud7FZZPJxHrRRjLsr0WtUSjq+wrZ3kTNTzB/T
vvVAZX+YbDSR1q0FVYidbYqxCqGxVAIlBrsd76A/bnZ2AjFnZV1XVG0nn9mz5xc4
SIZjbJ6720acB0CD3U3gz1X1LYMKSurPgPxS9OkI+08zVpGjN7w8j4/GxZjM750F
03IBcc835yIdwKwjneyXgEoLQna8vXUh7Ewcs3Xbess7WPvvW3oxHS/KkW8uvOM9
TNIsUla07physnjauK9lB7q9cesLsR5hz7emIfSsCDOBQSsMV6QwnPfl+0MhQxMP
jyPGXv4rkEFpdSsK7wojI0CrjuFffgLbYyTKrfH2OpYJw1c211pDuaWL1w/+LwTa
Oz0WxqBskGqebQy1F+M21rXZj2GAHX+IjX5FNAbcZyisvz6El7EH2ONWAaHxBBUH
lYSLKkcJBEUbswtzRFZ+0jy9/noyFruXXrzZXKOOZc0O/X3BJGDGHCixebHsZ8Dv
30nzKkYy5QFPBgtPlDTUdne0XqsNRBuwgTzbGXz+bQbhta3hCyUJ3/FKDFziFVUv
kKAFHxfPpP2GcPVn0wIoxjJQyuj/gQQf4pDYDK6Pv4YVeCI33qvx7mqtPQlPOkox
n92VV60FPnqRsXaEgUNfQdStXvdBlF8keLBuzEwQA3WAKvKCJaF4he2ZcNwnv6M/
-----END CERTIFICATE-----
